target datalayout = "e-m:e-p270:32:32-p271:32:32-p272:64:64-i64:64-i128:128-f80:128-n8:16:32:64-S128"
target triple = "x86_64-pc-linux-gnu"

%"struct.__gnu_cxx::__ops::_Iter_pred" = type { %class.anon }
%class.anon = type { i8 }

; Function Attrs: mustprogress nounwind uwtable
define internal noundef zeroext i1 @"_ZZN4Json6Reader15containsNewLineEPKcS2_ENK3$_0clEc"(ptr noundef nonnull align 1 dereferenceable(1) %0, i8 noundef signext %1) #4 align 2 {
  %3 = alloca ptr, align 8
  %4 = alloca i8, align 1
  store ptr %0, ptr %3, align 8
  store i8 %1, ptr %4, align 1
  %5 = load i8, ptr %4, align 1
  %6 = sext i8 %5 to i32
  %7 = icmp eq i32 %6, 10
  br i1 %7, label %12, label %8

8:                                                ; preds = %2
  %9 = load i8, ptr %4, align 1
  %10 = sext i8 %9 to i32
  %11 = icmp eq i32 %10, 13
  br label %12

12:                                               ; preds = %8, %2
  %13 = phi i1 [ true, %2 ], [ %11, %8 ]
  ret i1 %13
}

; Function Attrs: mustprogress uwtable
define internal noundef zeroext i1 @"_ZN9__gnu_cxx5__ops10_Iter_predIZN4Json6Reader15containsNewLineEPKcS5_E3$_0EclIS5_EEbT_"(ptr noundef nonnull align 1 dereferenceable(1) %0, ptr noundef %1) #5 align 2 {
  %3 = alloca ptr, align 8
  %4 = alloca ptr, align 8
  store ptr %0, ptr %3, align 8
  store ptr %1, ptr %4, align 8
  %5 = load ptr, ptr %3, align 8
  %6 = getelementptr inbounds %"struct.__gnu_cxx::__ops::_Iter_pred", ptr %5, i32 0, i32 0
  %7 = load ptr, ptr %4, align 8
  %8 = load i8, ptr %7, align 1
  %9 = call noundef zeroext i1 @"_ZZN4Json6Reader15containsNewLineEPKcS2_ENK3$_0clEc"(ptr noundef nonnull align 1 dereferenceable(1) %6, i8 noundef signext %8)
  ret i1 %9
}

; Function Attrs: mustprogress uwtable
define internal noundef ptr @"_ZSt9__find_ifIPKcN9__gnu_cxx5__ops10_Iter_predIZN4Json6Reader15containsNewLineES1_S1_E3$_0EEET_S9_S9_T0_St26random_access_iterator_tag"(ptr noundef %0, ptr noundef %1) #5 {
  %3 = alloca ptr, align 8
  %4 = alloca %"struct.__gnu_cxx::__ops::_Iter_pred", align 1
  %5 = alloca ptr, align 8
  %6 = alloca ptr, align 8
  %7 = alloca i64, align 8
  store ptr %0, ptr %5, align 8
  store ptr %1, ptr %6, align 8
  %8 = load ptr, ptr %6, align 8
  %9 = load ptr, ptr %5, align 8
  %10 = ptrtoint ptr %8 to i64
  %11 = ptrtoint ptr %9 to i64
  %12 = sub i64 %10, %11
  %13 = ashr i64 %12, 2
  store i64 %13, ptr %7, align 8
  br label %14

14:                                               ; preds = %46, %2
  %15 = load i64, ptr %7, align 8
  %16 = icmp sgt i64 %15, 0
  br i1 %16, label %17, label %49

17:                                               ; preds = %14
  %18 = load ptr, ptr %5, align 8
  %19 = call noundef zeroext i1 @"_ZN9__gnu_cxx5__ops10_Iter_predIZN4Json6Reader15containsNewLineEPKcS5_E3$_0EclIS5_EEbT_"(ptr noundef nonnull align 1 dereferenceable(1) %4, ptr noundef %18)
  br i1 %19, label %20, label %22

20:                                               ; preds = %17
  %21 = load ptr, ptr %5, align 8
  store ptr %21, ptr %3, align 8
  br label %82

22:                                               ; preds = %17
  %23 = load ptr, ptr %5, align 8
  %24 = getelementptr inbounds i8, ptr %23, i32 1
  store ptr %24, ptr %5, align 8
  %25 = load ptr, ptr %5, align 8
  %26 = call noundef zeroext i1 @"_ZN9__gnu_cxx5__ops10_Iter_predIZN4Json6Reader15containsNewLineEPKcS5_E3$_0EclIS5_EEbT_"(ptr noundef nonnull align 1 dereferenceable(1) %4, ptr noundef %25)
  br i1 %26, label %27, label %29

27:                                               ; preds = %22
  %28 = load ptr, ptr %5, align 8
  store ptr %28, ptr %3, align 8
  br label %82

29:                                               ; preds = %22
  %30 = load ptr, ptr %5, align 8
  %31 = getelementptr inbounds i8, ptr %30, i32 1
  store ptr %31, ptr %5, align 8
  %32 = load ptr, ptr %5, align 8
  %33 = call noundef zeroext i1 @"_ZN9__gnu_cxx5__ops10_Iter_predIZN4Json6Reader15containsNewLineEPKcS5_E3$_0EclIS5_EEbT_"(ptr noundef nonnull align 1 dereferenceable(1) %4, ptr noundef %32)
  br i1 %33, label %34, label %36

34:                                               ; preds = %29
  %35 = load ptr, ptr %5, align 8
  store ptr %35, ptr %3, align 8
  br label %82

36:                                               ; preds = %29
  %37 = load ptr, ptr %5, align 8
  %38 = getelementptr inbounds i8, ptr %37, i32 1
  store ptr %38, ptr %5, align 8
  %39 = load ptr, ptr %5, align 8
  %40 = call noundef zeroext i1 @"_ZN9__gnu_cxx5__ops10_Iter_predIZN4Json6Reader15containsNewLineEPKcS5_E3$_0EclIS5_EEbT_"(ptr noundef nonnull align 1 dereferenceable(1) %4, ptr noundef %39)
  br i1 %40, label %41, label %43

41:                                               ; preds = %36
  %42 = load ptr, ptr %5, align 8
  store ptr %42, ptr %3, align 8
  br label %82

43:                                               ; preds = %36
  %44 = load ptr, ptr %5, align 8
  %45 = getelementptr inbounds i8, ptr %44, i32 1
  store ptr %45, ptr %5, align 8
  br label %46

46:                                               ; preds = %43
  %47 = load i64, ptr %7, align 8
  %48 = add nsw i64 %47, -1
  store i64 %48, ptr %7, align 8
  br label %14, !llvm.loop !58

49:                                               ; preds = %14
  %50 = load ptr, ptr %6, align 8
  %51 = load ptr, ptr %5, align 8
  %52 = ptrtoint ptr %50 to i64
  %53 = ptrtoint ptr %51 to i64
  %54 = sub i64 %52, %53
  switch i64 %54, label %80 [
    i64 3, label %55
    i64 2, label %63
    i64 1, label %71
    i64 0, label %79
  ]

55:                                               ; preds = %49
  %56 = load ptr, ptr %5, align 8
  %57 = call noundef zeroext i1 @"_ZN9__gnu_cxx5__ops10_Iter_predIZN4Json6Reader15containsNewLineEPKcS5_E3$_0EclIS5_EEbT_"(ptr noundef nonnull align 1 dereferenceable(1) %4, ptr noundef %56)
  br i1 %57, label %58, label %60

58:                                               ; preds = %55
  %59 = load ptr, ptr %5, align 8
  store ptr %59, ptr %3, align 8
  br label %82

60:                                               ; preds = %55
  %61 = load ptr, ptr %5, align 8
  %62 = getelementptr inbounds i8, ptr %61, i32 1
  store ptr %62, ptr %5, align 8
  br label %63

63:                                               ; preds = %60, %49
  %64 = load ptr, ptr %5, align 8
  %65 = call noundef zeroext i1 @"_ZN9__gnu_cxx5__ops10_Iter_predIZN4Json6Reader15containsNewLineEPKcS5_E3$_0EclIS5_EEbT_"(ptr noundef nonnull align 1 dereferenceable(1) %4, ptr noundef %64)
  br i1 %65, label %66, label %68

66:                                               ; preds = %63
  %67 = load ptr, ptr %5, align 8
  store ptr %67, ptr %3, align 8
  br label %82

68:                                               ; preds = %63
  %69 = load ptr, ptr %5, align 8
  %70 = getelementptr inbounds i8, ptr %69, i32 1
  store ptr %70, ptr %5, align 8
  br label %71

71:                                               ; preds = %68, %49
  %72 = load ptr, ptr %5, align 8
  %73 = call noundef zeroext i1 @"_ZN9__gnu_cxx5__ops10_Iter_predIZN4Json6Reader15containsNewLineEPKcS5_E3$_0EclIS5_EEbT_"(ptr noundef nonnull align 1 dereferenceable(1) %4, ptr noundef %72)
  br i1 %73, label %74, label %76

74:                                               ; preds = %71
  %75 = load ptr, ptr %5, align 8
  store ptr %75, ptr %3, align 8
  br label %82

76:                                               ; preds = %71
  %77 = load ptr, ptr %5, align 8
  %78 = getelementptr inbounds i8, ptr %77, i32 1
  store ptr %78, ptr %5, align 8
  br label %79

79:                                               ; preds = %76, %49
  br label %80

80:                                               ; preds = %79, %49
  %81 = load ptr, ptr %6, align 8
  store ptr %81, ptr %3, align 8
  br label %82

82:                                               ; preds = %80, %74, %66, %58, %41, %34, %27, %20
  %83 = load ptr, ptr %3, align 8
  ret ptr %83
}

; Function Attrs: mustprogress nounwind uwtable
define linkonce_odr dso_local void @_ZSt19__iterator_categoryIPKcENSt15iterator_traitsIT_E17iterator_categoryERKS3_(ptr noundef nonnull align 8 dereferenceable(8) %0) #4 comdat {
  %2 = alloca ptr, align 8
  store ptr %0, ptr %2, align 8
  ret void
}

; Function Attrs: mustprogress nounwind uwtable
define internal void @"_ZN9__gnu_cxx5__ops10_Iter_predIZN4Json6Reader15containsNewLineEPKcS5_E3$_0EC2ES6_"(ptr noundef nonnull align 1 dereferenceable(1) %0) unnamed_addr #4 align 2 {
  %2 = alloca ptr, align 8
  store ptr %0, ptr %2, align 8
  ret void
}

; Function Attrs: mustprogress uwtable
define internal noundef ptr @"_ZSt9__find_ifIPKcN9__gnu_cxx5__ops10_Iter_predIZN4Json6Reader15containsNewLineES1_S1_E3$_0EEET_S9_S9_T0_"(ptr noundef %0, ptr noundef %1) #5 {
  %3 = alloca %"struct.__gnu_cxx::__ops::_Iter_pred", align 1
  %4 = alloca ptr, align 8
  %5 = alloca ptr, align 8
  %6 = alloca %"struct.__gnu_cxx::__ops::_Iter_pred", align 1
  store ptr %0, ptr %4, align 8
  store ptr %1, ptr %5, align 8
  %7 = load ptr, ptr %4, align 8
  %8 = load ptr, ptr %5, align 8
  call void @llvm.memcpy.p0.p0.i64(ptr align 1 %6, ptr align 1 %3, i64 1, i1 false)
  call void @_ZSt19__iterator_categoryIPKcENSt15iterator_traitsIT_E17iterator_categoryERKS3_(ptr noundef nonnull align 8 dereferenceable(8) %4)
  %9 = call noundef ptr @"_ZSt9__find_ifIPKcN9__gnu_cxx5__ops10_Iter_predIZN4Json6Reader15containsNewLineES1_S1_E3$_0EEET_S9_S9_T0_St26random_access_iterator_tag"(ptr noundef %7, ptr noundef %8)
  ret ptr %9
}

; Function Attrs: mustprogress uwtable
define internal void @"_ZN9__gnu_cxx5__ops11__pred_iterIZN4Json6Reader15containsNewLineEPKcS5_E3$_0EENS0_10_Iter_predIT_EES8_"() #5 {
  %1 = alloca %"struct.__gnu_cxx::__ops::_Iter_pred", align 1
  call void @"_ZN9__gnu_cxx5__ops10_Iter_predIZN4Json6Reader15containsNewLineEPKcS5_E3$_0EC2ES6_"(ptr noundef nonnull align 1 dereferenceable(1) %1)
  ret void
}

; Function Attrs: mustprogress uwtable
define internal noundef ptr @"_ZSt7find_ifIPKcZN4Json6Reader15containsNewLineES1_S1_E3$_0ET_S5_S5_T0_"(ptr noundef %0, ptr noundef %1) #5 {
  %3 = alloca ptr, align 8
  %4 = alloca ptr, align 8
  store ptr %0, ptr %3, align 8
  store ptr %1, ptr %4, align 8
  %5 = load ptr, ptr %3, align 8
  %6 = load ptr, ptr %4, align 8
  call void @"_ZN9__gnu_cxx5__ops11__pred_iterIZN4Json6Reader15containsNewLineEPKcS5_E3$_0EENS0_10_Iter_predIT_EES8_"()
  %7 = call noundef ptr @"_ZSt9__find_ifIPKcN9__gnu_cxx5__ops10_Iter_predIZN4Json6Reader15containsNewLineES1_S1_E3$_0EEET_S9_S9_T0_"(ptr noundef %5, ptr noundef %6)
  ret ptr %7
}

; Function Attrs: mustprogress uwtable
define internal noundef zeroext i1 @"_ZSt7none_ofIPKcZN4Json6Reader15containsNewLineES1_S1_E3$_0EbT_S5_T0_"(ptr noundef %0, ptr noundef %1) #5 {
  %3 = alloca ptr, align 8
  %4 = alloca ptr, align 8
  store ptr %0, ptr %3, align 8
  store ptr %1, ptr %4, align 8
  %5 = load ptr, ptr %4, align 8
  %6 = load ptr, ptr %3, align 8
  %7 = load ptr, ptr %4, align 8
  %8 = call noundef ptr @"_ZSt7find_ifIPKcZN4Json6Reader15containsNewLineES1_S1_E3$_0ET_S5_S5_T0_"(ptr noundef %6, ptr noundef %7)
  %9 = icmp eq ptr %5, %8
  ret i1 %9
}

; Function Attrs: mustprogress uwtable
define internal noundef zeroext i1 @"_ZSt6any_ofIPKcZN4Json6Reader15containsNewLineES1_S1_E3$_0EbT_S5_T0_"(ptr noundef %0, ptr noundef %1) #5 {
  %3 = alloca ptr, align 8
  %4 = alloca ptr, align 8
  store ptr %0, ptr %3, align 8
  store ptr %1, ptr %4, align 8
  %5 = load ptr, ptr %3, align 8
  %6 = load ptr, ptr %4, align 8
  %7 = call noundef zeroext i1 @"_ZSt7none_ofIPKcZN4Json6Reader15containsNewLineES1_S1_E3$_0EbT_S5_T0_"(ptr noundef %5, ptr noundef %6)
  %8 = xor i1 %7, true
  ret i1 %8
}

; Function Attrs: mustprogress uwtable
define dso_local noundef zeroext i1 @_ZN4Json6Reader15containsNewLineEPKcS2_(ptr noundef %0, ptr noundef %1) #5 align 2 {
  %3 = alloca ptr, align 8
  %4 = alloca ptr, align 8
  store ptr %0, ptr %3, align 8
  store ptr %1, ptr %4, align 8
  %5 = load ptr, ptr %3, align 8
  %6 = load ptr, ptr %4, align 8
  %7 = call noundef zeroext i1 @"_ZSt6any_ofIPKcZN4Json6Reader15containsNewLineES1_S1_E3$_0EbT_S5_T0_"(ptr noundef %5, ptr noundef %6)
  ret i1 %7
}