; Function Attrs: mustprogress nofree norecurse nosync nounwind willreturn memory(read, inaccessiblemem: none) uwtable
define dso_local noundef zeroext i1 @_ZN4Json6Reader15containsNewLineEPKcS2_(ptr noundef %0, ptr noundef %1) local_unnamed_addr #5 align 2 {
  %3 = ptrtoint ptr %1 to i64
  %4 = ptrtoint ptr %0 to i64
  %5 = sub i64 %3, %4
  %6 = ashr i64 %5, 2
  %7 = icmp sgt i64 %6, 0
  br i1 %7, label %.lr.ph.preheader.i.i.i.i.i, label %._crit_edge.i.i.i.i.i

.lr.ph.preheader.i.i.i.i.i:                       ; preds = %2
  %8 = and i64 %5, -4
  %scevgep.i.i.i.i.i = getelementptr i8, ptr %0, i64 %8
  br label %.lr.ph.i.i.i.i.i

.lr.ph.i.i.i.i.i:                                 ; preds = %15, %.lr.ph.preheader.i.i.i.i.i
  %.044.i.i.i.i.i = phi i64 [ %17, %15 ], [ %6, %.lr.ph.preheader.i.i.i.i.i ]
  %.02943.i.i.i.i.i = phi ptr [ %16, %15 ], [ %0, %.lr.ph.preheader.i.i.i.i.i ]
  %.029.val.i.i.i.i.i = load i8, ptr %.02943.i.i.i.i.i, align 1
  switch i8 %.029.val.i.i.i.i.i, label %9 [
    i8 13, label %"_ZSt6any_ofIPKcZN4Json6Reader15containsNewLineES1_S1_E3$_0EbT_S5_T0_.exit"
    i8 10, label %"_ZSt6any_ofIPKcZN4Json6Reader15containsNewLineES1_S1_E3$_0EbT_S5_T0_.exit"
  ]

9:                                                ; preds = %.lr.ph.i.i.i.i.i
  %10 = getelementptr inbounds i8, ptr %.02943.i.i.i.i.i, i64 1
  %.val.i.i.i.i.i = load i8, ptr %10, align 1
  switch i8 %.val.i.i.i.i.i, label %11 [
    i8 13, label %"_ZSt6any_ofIPKcZN4Json6Reader15containsNewLineES1_S1_E3$_0EbT_S5_T0_.exit.loopexit.split.loop.exit"
    i8 10, label %"_ZSt6any_ofIPKcZN4Json6Reader15containsNewLineES1_S1_E3$_0EbT_S5_T0_.exit.loopexit.split.loop.exit"
  ]

11:                                               ; preds = %9
  %12 = getelementptr inbounds i8, ptr %.02943.i.i.i.i.i, i64 2
  %.val30.i.i.i.i.i = load i8, ptr %12, align 1
  switch i8 %.val30.i.i.i.i.i, label %13 [
    i8 13, label %"_ZSt6any_ofIPKcZN4Json6Reader15containsNewLineES1_S1_E3$_0EbT_S5_T0_.exit.loopexit.split.loop.exit14"
    i8 10, label %"_ZSt6any_ofIPKcZN4Json6Reader15containsNewLineES1_S1_E3$_0EbT_S5_T0_.exit.loopexit.split.loop.exit14"
  ]

13:                                               ; preds = %11
  %14 = getelementptr inbounds i8, ptr %.02943.i.i.i.i.i, i64 3
  %.val31.i.i.i.i.i = load i8, ptr %14, align 1
  switch i8 %.val31.i.i.i.i.i, label %15 [
    i8 13, label %"_ZSt6any_ofIPKcZN4Json6Reader15containsNewLineES1_S1_E3$_0EbT_S5_T0_.exit.loopexit.split.loop.exit16"
    i8 10, label %"_ZSt6any_ofIPKcZN4Json6Reader15containsNewLineES1_S1_E3$_0EbT_S5_T0_.exit.loopexit.split.loop.exit16"
  ]

15:                                               ; preds = %13
  %16 = getelementptr inbounds i8, ptr %.02943.i.i.i.i.i, i64 4
  %17 = add nsw i64 %.044.i.i.i.i.i, -1
  %18 = icmp sgt i64 %.044.i.i.i.i.i, 1
  br i1 %18, label %.lr.ph.i.i.i.i.i, label %._crit_edge.loopexit.i.i.i.i.i, !llvm.loop !5

._crit_edge.loopexit.i.i.i.i.i:                   ; preds = %15
  %.pre.i.i.i.i.i = ptrtoint ptr %scevgep.i.i.i.i.i to i64
  br label %._crit_edge.i.i.i.i.i

._crit_edge.i.i.i.i.i:                            ; preds = %._crit_edge.loopexit.i.i.i.i.i, %2
  %.pre-phi.i.i.i.i.i = phi i64 [ %.pre.i.i.i.i.i, %._crit_edge.loopexit.i.i.i.i.i ], [ %4, %2 ]
  %.029.lcssa.i.i.i.i.i = phi ptr [ %scevgep.i.i.i.i.i, %._crit_edge.loopexit.i.i.i.i.i ], [ %0, %2 ]
  %19 = sub i64 %3, %.pre-phi.i.i.i.i.i
  switch i64 %19, label %27 [
    i64 3, label %20
    i64 2, label %23
    i64 1, label %26
  ]

20:                                               ; preds = %._crit_edge.i.i.i.i.i
  %.029.val32.i.i.i.i.i = load i8, ptr %.029.lcssa.i.i.i.i.i, align 1
  switch i8 %.029.val32.i.i.i.i.i, label %21 [
    i8 13, label %"_ZSt6any_ofIPKcZN4Json6Reader15containsNewLineES1_S1_E3$_0EbT_S5_T0_.exit"
    i8 10, label %"_ZSt6any_ofIPKcZN4Json6Reader15containsNewLineES1_S1_E3$_0EbT_S5_T0_.exit"
  ]

21:                                               ; preds = %20
  %22 = getelementptr inbounds i8, ptr %.029.lcssa.i.i.i.i.i, i64 1
  br label %23

23:                                               ; preds = %21, %._crit_edge.i.i.i.i.i
  %.1.i.i.i.i.i = phi ptr [ %.029.lcssa.i.i.i.i.i, %._crit_edge.i.i.i.i.i ], [ %22, %21 ]
  %.1.val.i.i.i.i.i = load i8, ptr %.1.i.i.i.i.i, align 1
  switch i8 %.1.val.i.i.i.i.i, label %24 [
    i8 13, label %"_ZSt6any_ofIPKcZN4Json6Reader15containsNewLineES1_S1_E3$_0EbT_S5_T0_.exit"
    i8 10, label %"_ZSt6any_ofIPKcZN4Json6Reader15containsNewLineES1_S1_E3$_0EbT_S5_T0_.exit"
  ]

24:                                               ; preds = %23
  %25 = getelementptr inbounds i8, ptr %.1.i.i.i.i.i, i64 1
  br label %26

26:                                               ; preds = %24, %._crit_edge.i.i.i.i.i
  %.2.i.i.i.i.i = phi ptr [ %.029.lcssa.i.i.i.i.i, %._crit_edge.i.i.i.i.i ], [ %25, %24 ]
  %.2.val.i.i.i.i.i = load i8, ptr %.2.i.i.i.i.i, align 1
  switch i8 %.2.val.i.i.i.i.i, label %27 [
    i8 13, label %"_ZSt6any_ofIPKcZN4Json6Reader15containsNewLineES1_S1_E3$_0EbT_S5_T0_.exit"
    i8 10, label %"_ZSt6any_ofIPKcZN4Json6Reader15containsNewLineES1_S1_E3$_0EbT_S5_T0_.exit"
  ]

27:                                               ; preds = %26, %._crit_edge.i.i.i.i.i
  br label %"_ZSt6any_ofIPKcZN4Json6Reader15containsNewLineES1_S1_E3$_0EbT_S5_T0_.exit"

"_ZSt6any_ofIPKcZN4Json6Reader15containsNewLineES1_S1_E3$_0EbT_S5_T0_.exit.loopexit.split.loop.exit": ; preds = %9, %9
  %28 = getelementptr inbounds i8, ptr %.02943.i.i.i.i.i, i64 1
  br label %"_ZSt6any_ofIPKcZN4Json6Reader15containsNewLineES1_S1_E3$_0EbT_S5_T0_.exit"

"_ZSt6any_ofIPKcZN4Json6Reader15containsNewLineES1_S1_E3$_0EbT_S5_T0_.exit.loopexit.split.loop.exit14": ; preds = %11, %11
  %29 = getelementptr inbounds i8, ptr %.02943.i.i.i.i.i, i64 2
  br label %"_ZSt6any_ofIPKcZN4Json6Reader15containsNewLineES1_S1_E3$_0EbT_S5_T0_.exit"

"_ZSt6any_ofIPKcZN4Json6Reader15containsNewLineES1_S1_E3$_0EbT_S5_T0_.exit.loopexit.split.loop.exit16": ; preds = %13, %13
  %30 = getelementptr inbounds i8, ptr %.02943.i.i.i.i.i, i64 3
  br label %"_ZSt6any_ofIPKcZN4Json6Reader15containsNewLineES1_S1_E3$_0EbT_S5_T0_.exit"

"_ZSt6any_ofIPKcZN4Json6Reader15containsNewLineES1_S1_E3$_0EbT_S5_T0_.exit": ; preds = %.lr.ph.i.i.i.i.i, %.lr.ph.i.i.i.i.i, %"_ZSt6any_ofIPKcZN4Json6Reader15containsNewLineES1_S1_E3$_0EbT_S5_T0_.exit.loopexit.split.loop.exit", %"_ZSt6any_ofIPKcZN4Json6Reader15containsNewLineES1_S1_E3$_0EbT_S5_T0_.exit.loopexit.split.loop.exit14", %"_ZSt6any_ofIPKcZN4Json6Reader15containsNewLineES1_S1_E3$_0EbT_S5_T0_.exit.loopexit.split.loop.exit16", %20, %20, %23, %23, %26, %26, %27
  %.028.i.i.i.i.i = phi ptr [ %1, %27 ], [ %.029.lcssa.i.i.i.i.i, %20 ], [ %.1.i.i.i.i.i, %23 ], [ %.2.i.i.i.i.i, %26 ], [ %.029.lcssa.i.i.i.i.i, %20 ], [ %.1.i.i.i.i.i, %23 ], [ %.2.i.i.i.i.i, %26 ], [ %28, %"_ZSt6any_ofIPKcZN4Json6Reader15containsNewLineES1_S1_E3$_0EbT_S5_T0_.exit.loopexit.split.loop.exit" ], [ %29, %"_ZSt6any_ofIPKcZN4Json6Reader15containsNewLineES1_S1_E3$_0EbT_S5_T0_.exit.loopexit.split.loop.exit14" ], [ %30, %"_ZSt6any_ofIPKcZN4Json6Reader15containsNewLineES1_S1_E3$_0EbT_S5_T0_.exit.loopexit.split.loop.exit16" ], [ %.02943.i.i.i.i.i, %.lr.ph.i.i.i.i.i ], [ %.02943.i.i.i.i.i, %.lr.ph.i.i.i.i.i ]
  %31 = icmp ne ptr %.028.i.i.i.i.i, %1
  ret i1 %31
}